ccopy_reg
_reconstructor
p1
(cagent.policy.BinaryActionLinearPolicy
BinaryActionLinearPolicy
p2
c__builtin__
object
p3
NtRp4
(dp5
S'b'
F0.01996663266855972
sS'w'
cnumpy.core.multiarray
_reconstruct
p6
(cnumpy
ndarray
p7
(I0
tS'b'
tRp8
(I1
(L4L
tcnumpy
dtype
p9
(S'f8'
I0
I1
tRp10
(I3
S'<'
NNNI-1
I-1
I0
tbI00
S'\xeb\xc0s\x8e,\x80\xe2?\xf7\xc5T\xa9J\x0f\xf8?\xa85\xbaF\xff \xf2\xbfxmuQ{r\xf7\xbf'
tbsb.