ccopy_reg
_reconstructor
p1
(cagent.policy.BinaryActionLinearPolicy
BinaryActionLinearPolicy
p2
c__builtin__
object
p3
NtRp4
(dp5
S'b'
F0.042270150603155802
sS'w'
cnumpy.core.multiarray
_reconstruct
p6
(cnumpy
ndarray
p7
(I0
tS'b'
tRp8
(I1
(L4L
tcnumpy
dtype
p9
(S'f8'
I0
I1
tRp10
(I3
S'<'
NNNI-1
I-1
I0
tbI00
S"1\xe2\x05\x86\xb7\xcal\xbfY\xbf\xfd'\xa0\x8e\xd1\xbf\x14gc\x1aZ\xaf\x08\xc0\x15\x93\xa2\x94-0\xfb\xbf"
tbsb.